target datalayout = "e-m:e-p270:32:32-p271:32:32-p272:64:64-i64:64-i128:128-f80:128-n8:16:32:64-S128"
target triple = "x86_64-unknown-linux-gnu"

%"class.std::__cxx11::basic_string" = type { %"struct.std::__cxx11::basic_string<char>::_Alloc_hider", i64, %union.anon }
%"struct.std::__cxx11::basic_string<char>::_Alloc_hider" = type { ptr }
%union.anon = type { i64, [8 x i8] }
%"class.cvc5::internal::theory::Valuation" = type { ptr }
%"class.cvc5::context::DefaultCleanUp" = type { i8 }
%"class.cvc5::context::DefaultCleanUp.11" = type { i8 }
%"class.cvc5::internal::theory::Theory" = type { %"class.cvc5::internal::EnvObj", %"class.std::__cxx11::basic_string", %"class.cvc5::internal::TimerStat", %"class.cvc5::internal::TimerStat", %"class.cvc5::context::CDList", ptr, %"class.cvc5::internal::theory::Valuation", ptr, %"class.std::unique_ptr", ptr, ptr, ptr, ptr, i32, [4 x i8], %"class.cvc5::context::CDList.5", %"class.cvc5::context::CDO", %"class.cvc5::context::CDO", ptr, ptr }
%"class.cvc5::internal::EnvObj" = type { ptr, ptr }
%"class.cvc5::internal::TimerStat" = type { ptr }
%"class.cvc5::context::CDList" = type <{ %"class.cvc5::context::ContextObj", %"class.std::vector", i64, i8, %"class.cvc5::context::DefaultCleanUp", [6 x i8] }>
%"class.cvc5::context::ContextObj" = type { ptr, ptr, ptr, ptr, ptr }
%"class.std::vector" = type { %"struct.std::_Vector_base" }
%"struct.std::_Vector_base" = type { %"struct.std::_Vector_base<cvc5::internal::NodeTemplate<false>, std::allocator<cvc5::internal::NodeTemplate<false>>>::_Vector_impl" }
%"struct.std::_Vector_base<cvc5::internal::NodeTemplate<false>, std::allocator<cvc5::internal::NodeTemplate<false>>>::_Vector_impl" = type { %"struct.std::_Vector_base<cvc5::internal::NodeTemplate<false>, std::allocator<cvc5::internal::NodeTemplate<false>>>::_Vector_impl_data" }
%"struct.std::_Vector_base<cvc5::internal::NodeTemplate<false>, std::allocator<cvc5::internal::NodeTemplate<false>>>::_Vector_impl_data" = type { ptr, ptr, ptr }
%"class.std::unique_ptr" = type { %"struct.std::__uniq_ptr_data" }
%"struct.std::__uniq_ptr_data" = type { %"class.std::__uniq_ptr_impl" }
%"class.std::__uniq_ptr_impl" = type { %"class.std::tuple" }
%"class.std::tuple" = type { %"struct.std::_Tuple_impl" }
%"struct.std::_Tuple_impl" = type { %"struct.std::_Head_base.4" }
%"struct.std::_Head_base.4" = type { ptr }
%"class.cvc5::context::CDList.5" = type <{ %"class.cvc5::context::ContextObj", %"class.std::vector.6", i64, i8, %"class.cvc5::context::DefaultCleanUp.11", [6 x i8] }>
%"class.std::vector.6" = type { %"struct.std::_Vector_base.7" }
%"struct.std::_Vector_base.7" = type { %"struct.std::_Vector_base<cvc5::internal::theory::Assertion, std::allocator<cvc5::internal::theory::Assertion>>::_Vector_impl" }
%"struct.std::_Vector_base<cvc5::internal::theory::Assertion, std::allocator<cvc5::internal::theory::Assertion>>::_Vector_impl" = type { %"struct.std::_Vector_base<cvc5::internal::theory::Assertion, std::allocator<cvc5::internal::theory::Assertion>>::_Vector_impl_data" }
%"struct.std::_Vector_base<cvc5::internal::theory::Assertion, std::allocator<cvc5::internal::theory::Assertion>>::_Vector_impl_data" = type { ptr, ptr, ptr }
%"class.cvc5::context::CDO" = type <{ %"class.cvc5::context::ContextObj", i32, [4 x i8] }>
%"class.cvc5::internal::NodeTemplate" = type { ptr }

; Function Attrs: mustprogress nounwind uwtable
define linkonce_odr hidden void @_ZN4cvc58internal12NodeTemplateILb0EED2Ev(ptr noundef nonnull align 8 dereferenceable(8) %this) unnamed_addr #7 comdat align 2 {
entry:
  %this.addr = alloca ptr, align 8
  store ptr %this, ptr %this.addr, align 8
  ret void
}

; Function Attrs: mustprogress nounwind uwtable
define linkonce_odr hidden void @_ZN4cvc58internal12NodeTemplateILb0EEC2ERKS2_(ptr noundef nonnull align 8 dereferenceable(8) %this, ptr noundef nonnull align 8 dereferenceable(8) %e) unnamed_addr #7 comdat align 2 {
entry:
  %this.addr = alloca ptr, align 8
  %e.addr = alloca ptr, align 8
  store ptr %this, ptr %this.addr, align 8
  store ptr %e, ptr %e.addr, align 8
  %this1 = load ptr, ptr %this.addr, align 8
  %0 = load ptr, ptr %e.addr, align 8
  %d_nv = getelementptr inbounds %"class.cvc5::internal::NodeTemplate", ptr %0, i32 0, i32 0
  %1 = load ptr, ptr %d_nv, align 8
  %d_nv2 = getelementptr inbounds %"class.cvc5::internal::NodeTemplate", ptr %this1, i32 0, i32 0
  store ptr %1, ptr %d_nv2, align 8
  ret void
}

; Function Attrs: mustprogress uwtable
define hidden noundef zeroext i1 @_ZN4cvc58internal6theory6Theory15areCareDisequalENS0_12NodeTemplateILb0EEES4_(ptr noundef nonnull align 8 dereferenceable(408) %this, ptr noundef %x, ptr noundef %y) unnamed_addr #4 align 2 personality ptr @__gxx_personality_v0 {
entry:
  %retval = alloca i1, align 1
  %this.addr = alloca ptr, align 8
  %x.indirect_addr = alloca ptr, align 8
  %y.indirect_addr = alloca ptr, align 8
  %agg.tmp = alloca %"class.cvc5::internal::NodeTemplate", align 8
  %agg.tmp2 = alloca %"class.cvc5::internal::NodeTemplate", align 8
  %exn.slot = alloca ptr, align 8
  %ehselector.slot = alloca i32, align 4
  %agg.tmp6 = alloca %"class.cvc5::internal::NodeTemplate", align 8
  %agg.tmp11 = alloca %"class.cvc5::internal::NodeTemplate", align 8
  %cleanup.cond = alloca i1, align 1
  %x_shared = alloca %"class.cvc5::internal::NodeTemplate", align 8
  %agg.tmp25 = alloca %"class.cvc5::internal::NodeTemplate", align 8
  %y_shared = alloca %"class.cvc5::internal::NodeTemplate", align 8
  %agg.tmp31 = alloca %"class.cvc5::internal::NodeTemplate", align 8
  %eqStatus = alloca i32, align 4
  %agg.tmp38 = alloca %"class.cvc5::internal::NodeTemplate", align 8
  %agg.tmp41 = alloca %"class.cvc5::internal::NodeTemplate", align 8
  %cleanup.dest.slot = alloca i32, align 4
  store ptr %this, ptr %this.addr, align 8
  store ptr %x, ptr %x.indirect_addr, align 8
  store ptr %y, ptr %y.indirect_addr, align 8
  %this1 = load ptr, ptr %this.addr, align 8
  %d_equalityEngine = getelementptr inbounds %"class.cvc5::internal::theory::Theory", ptr %this1, i32 0, i32 7
  %0 = load ptr, ptr %d_equalityEngine, align 8
  call void @_ZN4cvc58internal12NodeTemplateILb0EEC2ERKS2_(ptr noundef nonnull align 8 dereferenceable(8) %agg.tmp, ptr noundef nonnull align 8 dereferenceable(8) %x)
  invoke void @_ZN4cvc58internal12NodeTemplateILb0EEC2ERKS2_(ptr noundef nonnull align 8 dereferenceable(8) %agg.tmp2, ptr noundef nonnull align 8 dereferenceable(8) %y)
          to label %invoke.cont unwind label %lpad

invoke.cont:                                      ; preds = %entry
  %call = invoke noundef zeroext i1 @_ZNK4cvc58internal6theory2eq14EqualityEngine11areDisequalENS0_12NodeTemplateILb0EEES5_b(ptr noundef nonnull align 8 dereferenceable(1784) %0, ptr noundef %agg.tmp, ptr noundef %agg.tmp2, i1 noundef zeroext false)
          to label %invoke.cont4 unwind label %lpad3

invoke.cont4:                                     ; preds = %invoke.cont
  call void @_ZN4cvc58internal12NodeTemplateILb0EED2Ev(ptr noundef nonnull align 8 dereferenceable(8) %agg.tmp2) #3
  call void @_ZN4cvc58internal12NodeTemplateILb0EED2Ev(ptr noundef nonnull align 8 dereferenceable(8) %agg.tmp) #3
  br i1 %call, label %if.then, label %if.end

if.then:                                          ; preds = %invoke.cont4
  store i1 true, ptr %retval, align 1
  br label %return

lpad:                                             ; preds = %entry
  %1 = landingpad { ptr, i32 }
          cleanup
  %2 = extractvalue { ptr, i32 } %1, 0
  store ptr %2, ptr %exn.slot, align 8
  %3 = extractvalue { ptr, i32 } %1, 1
  store i32 %3, ptr %ehselector.slot, align 4
  br label %ehcleanup

lpad3:                                            ; preds = %invoke.cont
  %4 = landingpad { ptr, i32 }
          cleanup
  %5 = extractvalue { ptr, i32 } %4, 0
  store ptr %5, ptr %exn.slot, align 8
  %6 = extractvalue { ptr, i32 } %4, 1
  store i32 %6, ptr %ehselector.slot, align 4
  call void @_ZN4cvc58internal12NodeTemplateILb0EED2Ev(ptr noundef nonnull align 8 dereferenceable(8) %agg.tmp2) #3
  br label %ehcleanup

ehcleanup:                                        ; preds = %lpad3, %lpad
  call void @_ZN4cvc58internal12NodeTemplateILb0EED2Ev(ptr noundef nonnull align 8 dereferenceable(8) %agg.tmp) #3
  br label %eh.resume

if.end:                                           ; preds = %invoke.cont4
  %d_equalityEngine5 = getelementptr inbounds %"class.cvc5::internal::theory::Theory", ptr %this1, i32 0, i32 7
  %7 = load ptr, ptr %d_equalityEngine5, align 8
  call void @_ZN4cvc58internal12NodeTemplateILb0EEC2ERKS2_(ptr noundef nonnull align 8 dereferenceable(8) %agg.tmp6, ptr noundef nonnull align 8 dereferenceable(8) %x)
  %d_id = getelementptr inbounds %"class.cvc5::internal::theory::Theory", ptr %this1, i32 0, i32 13
  %8 = load i32, ptr %d_id, align 8
  store i1 false, ptr %cleanup.cond, align 1
  %call9 = invoke noundef zeroext i1 @_ZNK4cvc58internal6theory2eq14EqualityEngine13isTriggerTermENS0_12NodeTemplateILb0EEENS1_8TheoryIdE(ptr noundef nonnull align 8 dereferenceable(1784) %7, ptr noundef %agg.tmp6, i32 noundef %8)
          to label %invoke.cont8 unwind label %lpad7

invoke.cont8:                                     ; preds = %if.end
  br i1 %call9, label %lor.rhs, label %lor.end

lor.rhs:                                          ; preds = %invoke.cont8
  %d_equalityEngine10 = getelementptr inbounds %"class.cvc5::internal::theory::Theory", ptr %this1, i32 0, i32 7
  %9 = load ptr, ptr %d_equalityEngine10, align 8
  invoke void @_ZN4cvc58internal12NodeTemplateILb0EEC2ERKS2_(ptr noundef nonnull align 8 dereferenceable(8) %agg.tmp11, ptr noundef nonnull align 8 dereferenceable(8) %y)
          to label %invoke.cont12 unwind label %lpad7

invoke.cont12:                                    ; preds = %lor.rhs
  store i1 true, ptr %cleanup.cond, align 1
  %d_id13 = getelementptr inbounds %"class.cvc5::internal::theory::Theory", ptr %this1, i32 0, i32 13
  %10 = load i32, ptr %d_id13, align 8
  %call16 = invoke noundef zeroext i1 @_ZNK4cvc58internal6theory2eq14EqualityEngine13isTriggerTermENS0_12NodeTemplateILb0EEENS1_8TheoryIdE(ptr noundef nonnull align 8 dereferenceable(1784) %9, ptr noundef %agg.tmp11, i32 noundef %10)
          to label %invoke.cont15 unwind label %lpad14

invoke.cont15:                                    ; preds = %invoke.cont12
  %lnot = xor i1 %call16, true
  br label %lor.end

lor.end:                                          ; preds = %invoke.cont15, %invoke.cont8
  %11 = phi i1 [ true, %invoke.cont8 ], [ %lnot, %invoke.cont15 ]
  %cleanup.is_active = load i1, ptr %cleanup.cond, align 1
  br i1 %cleanup.is_active, label %cleanup.action, label %cleanup.done

cleanup.action:                                   ; preds = %lor.end
  call void @_ZN4cvc58internal12NodeTemplateILb0EED2Ev(ptr noundef nonnull align 8 dereferenceable(8) %agg.tmp11) #3
  br label %cleanup.done

cleanup.done:                                     ; preds = %cleanup.action, %lor.end
  call void @_ZN4cvc58internal12NodeTemplateILb0EED2Ev(ptr noundef nonnull align 8 dereferenceable(8) %agg.tmp6) #3
  br i1 %11, label %if.then22, label %if.end23

if.then22:                                        ; preds = %cleanup.done
  store i1 false, ptr %retval, align 1
  br label %return

lpad7:                                            ; preds = %lor.rhs, %if.end
  %12 = landingpad { ptr, i32 }
          cleanup
  %13 = extractvalue { ptr, i32 } %12, 0
  store ptr %13, ptr %exn.slot, align 8
  %14 = extractvalue { ptr, i32 } %12, 1
  store i32 %14, ptr %ehselector.slot, align 4
  br label %ehcleanup21

lpad14:                                           ; preds = %invoke.cont12
  %15 = landingpad { ptr, i32 }
          cleanup
  %16 = extractvalue { ptr, i32 } %15, 0
  store ptr %16, ptr %exn.slot, align 8
  %17 = extractvalue { ptr, i32 } %15, 1
  store i32 %17, ptr %ehselector.slot, align 4
  %cleanup.is_active18 = load i1, ptr %cleanup.cond, align 1
  br i1 %cleanup.is_active18, label %cleanup.action19, label %cleanup.done20

cleanup.action19:                                 ; preds = %lpad14
  call void @_ZN4cvc58internal12NodeTemplateILb0EED2Ev(ptr noundef nonnull align 8 dereferenceable(8) %agg.tmp11) #3
  br label %cleanup.done20

cleanup.done20:                                   ; preds = %cleanup.action19, %lpad14
  br label %ehcleanup21

ehcleanup21:                                      ; preds = %cleanup.done20, %lpad7
  call void @_ZN4cvc58internal12NodeTemplateILb0EED2Ev(ptr noundef nonnull align 8 dereferenceable(8) %agg.tmp6) #3
  br label %eh.resume

if.end23:                                         ; preds = %cleanup.done
  %d_equalityEngine24 = getelementptr inbounds %"class.cvc5::internal::theory::Theory", ptr %this1, i32 0, i32 7
  %18 = load ptr, ptr %d_equalityEngine24, align 8
  call void @_ZN4cvc58internal12NodeTemplateILb0EEC2ERKS2_(ptr noundef nonnull align 8 dereferenceable(8) %agg.tmp25, ptr noundef nonnull align 8 dereferenceable(8) %x)
  %d_id26 = getelementptr inbounds %"class.cvc5::internal::theory::Theory", ptr %this1, i32 0, i32 13
  %19 = load i32, ptr %d_id26, align 8
  invoke void @_ZNK4cvc58internal6theory2eq14EqualityEngine28getTriggerTermRepresentativeENS0_12NodeTemplateILb0EEENS1_8TheoryIdE(ptr sret(%"class.cvc5::internal::NodeTemplate") align 8 %x_shared, ptr noundef nonnull align 8 dereferenceable(1784) %18, ptr noundef %agg.tmp25, i32 noundef %19)
          to label %invoke.cont28 unwind label %lpad27

invoke.cont28:                                    ; preds = %if.end23
  call void @_ZN4cvc58internal12NodeTemplateILb0EED2Ev(ptr noundef nonnull align 8 dereferenceable(8) %agg.tmp25) #3
  %d_equalityEngine30 = getelementptr inbounds %"class.cvc5::internal::theory::Theory", ptr %this1, i32 0, i32 7
  %20 = load ptr, ptr %d_equalityEngine30, align 8
  invoke void @_ZN4cvc58internal12NodeTemplateILb0EEC2ERKS2_(ptr noundef nonnull align 8 dereferenceable(8) %agg.tmp31, ptr noundef nonnull align 8 dereferenceable(8) %y)
          to label %invoke.cont33 unwind label %lpad32

invoke.cont33:                                    ; preds = %invoke.cont28
  %d_id34 = getelementptr inbounds %"class.cvc5::internal::theory::Theory", ptr %this1, i32 0, i32 13
  %21 = load i32, ptr %d_id34, align 8
  invoke void @_ZNK4cvc58internal6theory2eq14EqualityEngine28getTriggerTermRepresentativeENS0_12NodeTemplateILb0EEENS1_8TheoryIdE(ptr sret(%"class.cvc5::internal::NodeTemplate") align 8 %y_shared, ptr noundef nonnull align 8 dereferenceable(1784) %20, ptr noundef %agg.tmp31, i32 noundef %21)
          to label %invoke.cont36 unwind label %lpad35

invoke.cont36:                                    ; preds = %invoke.cont33
  call void @_ZN4cvc58internal12NodeTemplateILb0EED2Ev(ptr noundef nonnull align 8 dereferenceable(8) %agg.tmp31) #3
  %d_valuation = getelementptr inbounds %"class.cvc5::internal::theory::Theory", ptr %this1, i32 0, i32 6
  invoke void @_ZN4cvc58internal12NodeTemplateILb0EEC2ERKS2_(ptr noundef nonnull align 8 dereferenceable(8) %agg.tmp38, ptr noundef nonnull align 8 dereferenceable(8) %x_shared)
          to label %invoke.cont40 unwind label %lpad39

invoke.cont40:                                    ; preds = %invoke.cont36
  invoke void @_ZN4cvc58internal12NodeTemplateILb0EEC2ERKS2_(ptr noundef nonnull align 8 dereferenceable(8) %agg.tmp41, ptr noundef nonnull align 8 dereferenceable(8) %y_shared)
          to label %invoke.cont43 unwind label %lpad42

invoke.cont43:                                    ; preds = %invoke.cont40
  %call46 = invoke noundef i32 @_ZN4cvc58internal6theory9Valuation17getEqualityStatusENS0_12NodeTemplateILb0EEES4_(ptr noundef nonnull align 8 dereferenceable(8) %d_valuation, ptr noundef %agg.tmp38, ptr noundef %agg.tmp41)
          to label %invoke.cont45 unwind label %lpad44

invoke.cont45:                                    ; preds = %invoke.cont43
  call void @_ZN4cvc58internal12NodeTemplateILb0EED2Ev(ptr noundef nonnull align 8 dereferenceable(8) %agg.tmp41) #3
  call void @_ZN4cvc58internal12NodeTemplateILb0EED2Ev(ptr noundef nonnull align 8 dereferenceable(8) %agg.tmp38) #3
  store i32 %call46, ptr %eqStatus, align 4
  %22 = load i32, ptr %eqStatus, align 4
  %cmp = icmp eq i32 %22, 1
  br i1 %cmp, label %if.then52, label %lor.lhs.false

lor.lhs.false:                                    ; preds = %invoke.cont45
  %23 = load i32, ptr %eqStatus, align 4
  %cmp49 = icmp eq i32 %23, 3
  br i1 %cmp49, label %if.then52, label %lor.lhs.false50

lor.lhs.false50:                                  ; preds = %lor.lhs.false
  %24 = load i32, ptr %eqStatus, align 4
  %cmp51 = icmp eq i32 %24, 5
  br i1 %cmp51, label %if.then52, label %if.end53

if.then52:                                        ; preds = %lor.lhs.false50, %lor.lhs.false, %invoke.cont45
  store i1 true, ptr %retval, align 1
  store i32 1, ptr %cleanup.dest.slot, align 4
  br label %cleanup

lpad27:                                           ; preds = %if.end23
  %25 = landingpad { ptr, i32 }
          cleanup
  %26 = extractvalue { ptr, i32 } %25, 0
  store ptr %26, ptr %exn.slot, align 8
  %27 = extractvalue { ptr, i32 } %25, 1
  store i32 %27, ptr %ehselector.slot, align 4
  call void @_ZN4cvc58internal12NodeTemplateILb0EED2Ev(ptr noundef nonnull align 8 dereferenceable(8) %agg.tmp25) #3
  br label %eh.resume

lpad32:                                           ; preds = %invoke.cont28
  %28 = landingpad { ptr, i32 }
          cleanup
  %29 = extractvalue { ptr, i32 } %28, 0
  store ptr %29, ptr %exn.slot, align 8
  %30 = extractvalue { ptr, i32 } %28, 1
  store i32 %30, ptr %ehselector.slot, align 4
  br label %ehcleanup56

lpad35:                                           ; preds = %invoke.cont33
  %31 = landingpad { ptr, i32 }
          cleanup
  %32 = extractvalue { ptr, i32 } %31, 0
  store ptr %32, ptr %exn.slot, align 8
  %33 = extractvalue { ptr, i32 } %31, 1
  store i32 %33, ptr %ehselector.slot, align 4
  call void @_ZN4cvc58internal12NodeTemplateILb0EED2Ev(ptr noundef nonnull align 8 dereferenceable(8) %agg.tmp31) #3
  br label %ehcleanup56

lpad39:                                           ; preds = %invoke.cont36
  %34 = landingpad { ptr, i32 }
          cleanup
  %35 = extractvalue { ptr, i32 } %34, 0
  store ptr %35, ptr %exn.slot, align 8
  %36 = extractvalue { ptr, i32 } %34, 1
  store i32 %36, ptr %ehselector.slot, align 4
  br label %ehcleanup54

lpad42:                                           ; preds = %invoke.cont40
  %37 = landingpad { ptr, i32 }
          cleanup
  %38 = extractvalue { ptr, i32 } %37, 0
  store ptr %38, ptr %exn.slot, align 8
  %39 = extractvalue { ptr, i32 } %37, 1
  store i32 %39, ptr %ehselector.slot, align 4
  br label %ehcleanup48

lpad44:                                           ; preds = %invoke.cont43
  %40 = landingpad { ptr, i32 }
          cleanup
  %41 = extractvalue { ptr, i32 } %40, 0
  store ptr %41, ptr %exn.slot, align 8
  %42 = extractvalue { ptr, i32 } %40, 1
  store i32 %42, ptr %ehselector.slot, align 4
  call void @_ZN4cvc58internal12NodeTemplateILb0EED2Ev(ptr noundef nonnull align 8 dereferenceable(8) %agg.tmp41) #3
  br label %ehcleanup48

ehcleanup48:                                      ; preds = %lpad44, %lpad42
  call void @_ZN4cvc58internal12NodeTemplateILb0EED2Ev(ptr noundef nonnull align 8 dereferenceable(8) %agg.tmp38) #3
  br label %ehcleanup54

if.end53:                                         ; preds = %lor.lhs.false50
  store i1 false, ptr %retval, align 1
  store i32 1, ptr %cleanup.dest.slot, align 4
  br label %cleanup

cleanup:                                          ; preds = %if.end53, %if.then52
  call void @_ZN4cvc58internal12NodeTemplateILb0EED2Ev(ptr noundef nonnull align 8 dereferenceable(8) %y_shared) #3
  call void @_ZN4cvc58internal12NodeTemplateILb0EED2Ev(ptr noundef nonnull align 8 dereferenceable(8) %x_shared) #3
  br label %return

ehcleanup54:                                      ; preds = %ehcleanup48, %lpad39
  call void @_ZN4cvc58internal12NodeTemplateILb0EED2Ev(ptr noundef nonnull align 8 dereferenceable(8) %y_shared) #3
  br label %ehcleanup56

ehcleanup56:                                      ; preds = %ehcleanup54, %lpad35, %lpad32
  call void @_ZN4cvc58internal12NodeTemplateILb0EED2Ev(ptr noundef nonnull align 8 dereferenceable(8) %x_shared) #3
  br label %eh.resume

return:                                           ; preds = %cleanup, %if.then22, %if.then
  %43 = load i1, ptr %retval, align 1
  ret i1 %43

eh.resume:                                        ; preds = %ehcleanup56, %lpad27, %ehcleanup21, %ehcleanup
  %exn = load ptr, ptr %exn.slot, align 8
  %sel = load i32, ptr %ehselector.slot, align 4
  %lpad.val = insertvalue { ptr, i32 } poison, ptr %exn, 0
  %lpad.val57 = insertvalue { ptr, i32 } %lpad.val, i32 %sel, 1
  resume { ptr, i32 } %lpad.val57
}