; Function Attrs: mustprogress uwtable
define hidden noundef zeroext i1 @_ZN4cvc58internal6theory6Theory15areCareDisequalENS0_12NodeTemplateILb0EEES4_(ptr noundef nonnull align 8 dereferenceable(408) %this, ptr nocapture noundef readonly %x, ptr nocapture noundef readonly %y) unnamed_addr #3 align 2 personality ptr @__gxx_personality_v0 {
entry:
  %agg.tmp = alloca %"class.cvc5::internal::NodeTemplate", align 8
  %agg.tmp2 = alloca %"class.cvc5::internal::NodeTemplate", align 8
  %agg.tmp6 = alloca %"class.cvc5::internal::NodeTemplate", align 8
  %agg.tmp11 = alloca %"class.cvc5::internal::NodeTemplate", align 8
  %x_shared = alloca %"class.cvc5::internal::NodeTemplate", align 8
  %agg.tmp25 = alloca %"class.cvc5::internal::NodeTemplate", align 8
  %y_shared = alloca %"class.cvc5::internal::NodeTemplate", align 8
  %agg.tmp31 = alloca %"class.cvc5::internal::NodeTemplate", align 8
  %agg.tmp38 = alloca %"class.cvc5::internal::NodeTemplate", align 8
  %agg.tmp41 = alloca %"class.cvc5::internal::NodeTemplate", align 8
  %d_equalityEngine = getelementptr inbounds i8, ptr %this, i64 160
  %0 = load ptr, ptr %d_equalityEngine, align 8
  %1 = load ptr, ptr %x, align 8
  store ptr %1, ptr %agg.tmp, align 8
  %2 = load ptr, ptr %y, align 8
  store ptr %2, ptr %agg.tmp2, align 8
  %call = call noundef zeroext i1 @_ZNK4cvc58internal6theory2eq14EqualityEngine11areDisequalENS0_12NodeTemplateILb0EEES5_b(ptr noundef nonnull align 8 dereferenceable(1784) %0, ptr noundef nonnull %agg.tmp, ptr noundef nonnull %agg.tmp2, i1 noundef zeroext false)
  br i1 %call, label %return, label %if.end

if.end:                                           ; preds = %entry
  %3 = load ptr, ptr %d_equalityEngine, align 8
  %4 = load ptr, ptr %x, align 8
  store ptr %4, ptr %agg.tmp6, align 8
  %d_id = getelementptr inbounds i8, ptr %this, i64 208
  %5 = load i32, ptr %d_id, align 8
  %call9 = call noundef zeroext i1 @_ZNK4cvc58internal6theory2eq14EqualityEngine13isTriggerTermENS0_12NodeTemplateILb0EEENS1_8TheoryIdE(ptr noundef nonnull align 8 dereferenceable(1784) %3, ptr noundef nonnull %agg.tmp6, i32 noundef %5)
  br i1 %call9, label %lor.rhs, label %return

lor.rhs:                                          ; preds = %if.end
  %6 = load ptr, ptr %d_equalityEngine, align 8
  %7 = load ptr, ptr %y, align 8
  store ptr %7, ptr %agg.tmp11, align 8
  %8 = load i32, ptr %d_id, align 8
  %call16 = call noundef zeroext i1 @_ZNK4cvc58internal6theory2eq14EqualityEngine13isTriggerTermENS0_12NodeTemplateILb0EEENS1_8TheoryIdE(ptr noundef nonnull align 8 dereferenceable(1784) %6, ptr noundef nonnull %agg.tmp11, i32 noundef %8)
  br i1 %call16, label %if.end23, label %return

if.end23:                                         ; preds = %lor.rhs
  %9 = load ptr, ptr %d_equalityEngine, align 8
  %10 = load ptr, ptr %x, align 8
  store ptr %10, ptr %agg.tmp25, align 8
  %11 = load i32, ptr %d_id, align 8
  call void @_ZNK4cvc58internal6theory2eq14EqualityEngine28getTriggerTermRepresentativeENS0_12NodeTemplateILb0EEENS1_8TheoryIdE(ptr nonnull sret(%"class.cvc5::internal::NodeTemplate") align 8 %x_shared, ptr noundef nonnull align 8 dereferenceable(1784) %9, ptr noundef nonnull %agg.tmp25, i32 noundef %11)
  %12 = load ptr, ptr %d_equalityEngine, align 8
  %13 = load ptr, ptr %y, align 8
  store ptr %13, ptr %agg.tmp31, align 8
  %14 = load i32, ptr %d_id, align 8
  call void @_ZNK4cvc58internal6theory2eq14EqualityEngine28getTriggerTermRepresentativeENS0_12NodeTemplateILb0EEENS1_8TheoryIdE(ptr nonnull sret(%"class.cvc5::internal::NodeTemplate") align 8 %y_shared, ptr noundef nonnull align 8 dereferenceable(1784) %12, ptr noundef nonnull %agg.tmp31, i32 noundef %14)
  %d_valuation = getelementptr inbounds i8, ptr %this, i64 152
  %15 = load ptr, ptr %x_shared, align 8
  store ptr %15, ptr %agg.tmp38, align 8
  %16 = load ptr, ptr %y_shared, align 8
  store ptr %16, ptr %agg.tmp41, align 8
  %call46 = call noundef i32 @_ZN4cvc58internal6theory9Valuation17getEqualityStatusENS0_12NodeTemplateILb0EEES4_(ptr noundef nonnull align 8 dereferenceable(8) %d_valuation, ptr noundef nonnull %agg.tmp38, ptr noundef nonnull %agg.tmp41)
  %17 = and i32 %call46, -3
  %or.cond = icmp eq i32 %17, 1
  %cmp51 = icmp eq i32 %call46, 5
  %or.cond1 = or i1 %cmp51, %or.cond
  br label %return

return:                                           ; preds = %if.end, %lor.rhs, %entry, %if.end23
  %retval.1 = phi i1 [ %or.cond1, %if.end23 ], [ true, %entry ], [ false, %lor.rhs ], [ false, %if.end ]
  ret i1 %retval.1
}